LIBRARY	"THRASH"
EXPORTS
	_THRASH_about@0				= ?About@Main@@YGPAUThrashAbout@@XZ
	_THRASH_clip@16				= ?Clip@Main@@YGHUtagRECT@@@Z
	_THRASH_idle@0				= ?Idle@Main@@YGXXZ
	_THRASH_init@0				= ?Init@Main@@YGHXZ
	_THRASH_is@0				= ?Is@Main@@YGKXZ
	_THRASH_pageflip@0			= ?PageFlip@Main@@YGXXZ
	_THRASH_restore@0			= ?Restore@Main@@YGHXZ
	_THRASH_sync@4				= ?Sync@Main@@YGHK@Z
	_THRASH_selectdisplay@4		= ?SelectDisplay@Main@@YGHK@Z
	_THRASH_setvideomode@12		= ?SetVideoMode@Main@@YGHKKH@Z
	_THRASH_clearwindow@0		= ?Clear@Window@@YGXXZ
	_THRASH_flushwindow@0		= ?Flush@Window@@YGXXZ
	_THRASH_window@4			= ?Window@0@YGHK@Z
	_THRASH_lockwindow@0		= ?Lock@Window@@YGPAUThrashWindow@@XZ
	_THRASH_unlockwindow@4		= ?Unlock@Window@@YGHPAUThrashWindow@@@Z
	_THRASH_readrect@20			= ?Read@Rect@@YGHUThrashRectangle@@PAX@Z
	_THRASH_writerect@20		= ?Write@Rect@@YGHUThrashRectangle@@PAX@Z
	_THRASH_writerect@24		= ?Write@Rect@@YGHUThrashRectangle@@PAXK@Z
	_THRASH_getstate@4			= ?Get@State@@YGKW4ThrashState@@@Z
	_THRASH_setstate@8			= ?Set@State@@YGHW4ThrashState@@K@Z
	_THRASH_talloc@20			= ?Allocate@Texture@@YGPAUThrashTexture@@KKW4ThrashColorFormatIndex@@KK@Z
	_THRASH_settexture@4		= ?Set@Texture@@YGHPAUThrashTexture@@@Z
	_THRASH_tupdate@12			= ?Update@Texture@@YGPAUThrashTexture@@PAU2@PAXPAE@Z
	_THRASH_tfree@4				= ?Free@Texture@@YGHPAUThrashTexture@@@Z
	_THRASH_treset@0			= ?Reset@Texture@@YGHXZ
	_THRASH_drawpoint@4			= ?Draw@Point@@YGXPAUThrashVertex@@@Z
	_THRASH_drawpointstrip@8	= ?DrawStrip@Point@@YGXKQAUThrashVertex@@@Z
	_THRASH_drawpointmesh@12	= ?DrawMesh@Point@@YGXKQAUThrashVertex@@QAK@Z
	_THRASH_drawline@8			= ?Draw@Line@@YGXPAUThrashVertex@@0@Z
	_THRASH_drawlinestrip@8		= ?DrawStrip@Line@@YGXKQAUThrashVertex@@@Z
	_THRASH_drawlinestrip@12	= ?DrawStrip@Line@@YGXKQAUThrashVertex@@QAK@Z
	_THRASH_drawlinemesh@12		= ?DrawMesh@Line@@YGXKQAUThrashVertex@@QAK@Z
	_THRASH_drawtri@12			= ?Draw@Tri@@YGXPAUThrashVertex@@00@Z
	_THRASH_drawtristrip@8		= ?DrawStrip@Tri@@YGXKQAUThrashVertex@@@Z
	_THRASH_drawtristrip@12		= ?DrawStrip@Tri@@YGXKQAUThrashVertex@@QAK@Z
	_THRASH_drawtrifan@8		= ?DrawFan@Tri@@YGXKQAUThrashVertex@@@Z
	_THRASH_drawtrifan@12		= ?DrawFan@Tri@@YGXKQAUThrashVertex@@QAK@Z
	_THRASH_drawtrimesh@12		= ?DrawMesh@Tri@@YGXKQAUThrashVertex@@QAK@Z
	_THRASH_drawquad@16			= ?Draw@Quad@@YGXPAUThrashVertex@@000@Z
	_THRASH_drawquadmesh@12		= ?DrawMesh@Quad@@YGXKQAUThrashVertex@@QAK@Z
	_THRASH_drawsprite@8		= ?Draw@Sprite@@YGXPAUThrashVertex@@0@Z
	_THRASH_drawspritemesh@12	= ?DrawMesh@Sprite@@YGXKQAUThrashVertex@@QAK@Z